ccopy_reg
_reconstructor
p0
(crequests.sessions
Session
p1
c__builtin__
object
p2
Ntp3
Rp4
(dp5
S'cookies'
p6
g0
(crequests.cookies
RequestsCookieJar
p7
g2
Ntp8
Rp9
(dp10
S'_now'
p11
I1428868632
sS'_policy'
p12
(icookielib
DefaultCookiePolicy
p13
(dp14
S'strict_rfc2965_unverifiable'
p15
I01
sS'strict_ns_domain'
p16
I0
sS'_allowed_domains'
p17
NsS'rfc2109_as_netscape'
p18
NsS'rfc2965'
p19
I00
sS'strict_domain'
p20
I00
sg11
I1428868632
sS'strict_ns_set_path'
p21
I00
sS'strict_ns_unverifiable'
p22
I00
sS'strict_ns_set_initial_dollar'
p23
I00
sS'hide_cookie2'
p24
I00
sS'_blocked_domains'
p25
(tsS'netscape'
p26
I01
sbsS'_cookies'
p27
(dp28
S'.parse.com'
p29
(dp30
S'/'
p31
(dp32
S'user_credentials'
p33
(icookielib
Cookie
p34
(dp35
S'comment'
p36
NsS'domain'
p37
S'.parse.com'
p38
sS'name'
p39
g33
sS'domain_initial_dot'
p40
I01
sS'expires'
p41
NsS'value'
p42
S'3f8ca4024a83f4c154c3abfa118db32afac64f2e023a2aa73343d5c1106d0df60be3059f76fd1cda64e1e8f83af792e66ff3b3e92eca8bbefa159f56696f8426%3A%3A278484'
p43
sS'domain_specified'
p44
I01
sS'_rest'
p45
(dp46
S'HttpOnly'
p47
NssS'version'
p48
I0
sS'port_specified'
p49
I00
sS'rfc2109'
p50
I00
sS'discard'
p51
I01
sS'path_specified'
p52
I01
sS'path'
p53
g31
sS'port'
p54
NsS'comment_url'
p55
NsS'secure'
p56
I01
sbsS'_parse_session'
p57
(icookielib
Cookie
p58
(dp59
g36
Nsg37
S'.parse.com'
p60
sg39
S'_parse_session'
p61
sg40
I01
sg41
I1431460632
sg42
S'BAh7CkkiD3Nlc3Npb25faWQGOgZFRiIlMDQ1NWI2ZTAwZGE3NWVjNDA1MWY5NDQwZDMzZDYxZTZJIhBsYW5kaW5nX3VybAY7AEZJIgYvBjsARkkiEF9jc3JmX3Rva2VuBjsARkkiMUJVMjkvREZyazIwT1RVWnJkRTdlZ2JjazBsQ0k2V1ZJMVlWSWVJYkZKSlk9BjsARkkiFXVzZXJfY3JlZGVudGlhbHMGOwBGSSIBgDNmOGNhNDAyNGE4M2Y0YzE1NGMzYWJmYTExOGRiMzJhZmFjNjRmMmUwMjNhMmFhNzMzNDNkNWMxMTA2ZDBkZjYwYmUzMDU5Zjc2ZmQxY2RhNjRlMWU4ZjgzYWY3OTJlNjZmZjNiM2U5MmVjYThiYmVmYTE1OWY1NjY5NmY4NDI2BjsAVEkiGHVzZXJfY3JlZGVudGlhbHNfaWQGOwBGaQPUPwQ%3D--098d8539f7eaf19a6d99c805dd654fc7e194cd58'
p62
sg44
I01
sg45
(dp63
S'HttpOnly'
p64
Nssg48
I0
sg49
I00
sg50
I00
sg51
I00
sg52
I01
sg53
g31
sg54
Nsg55
Nsg56
I01
sbssssbsS'stream'
p65
I00
sS'hooks'
p66
(dp67
S'response'
p68
(lp69
ssS'auth'
p70
NsS'trust_env'
p71
I01
sS'headers'
p72
g0
(crequests.structures
CaseInsensitiveDict
p73
g2
Ntp74
Rp75
(dp76
S'_store'
p77
(dp78
S'accept-encoding'
p79
(S'Accept-Encoding'
p80
S'gzip, deflate'
p81
tp82
sS'accept'
p83
(S'Accept'
p84
S'*/*'
p85
tp86
sS'user-agent'
p87
(S'User-Agent'
p88
S'python-requests/2.3.0 CPython/2.7.6 Darwin/14.1.0'
p89
tp90
ssbsS'cert'
p91
NsS'params'
p92
(dp93
sS'prefetch'
p94
NsS'timeout'
p95
NsS'verify'
p96
I01
sS'proxies'
p97
(dp98
sS'adapters'
p99
crequests.packages.urllib3.packages.ordered_dict
OrderedDict
p100
((lp101
(lp102
S'https://'
p103
ag0
(crequests.adapters
HTTPAdapter
p104
g2
Ntp105
Rp106
(dp107
S'_pool_block'
p108
I00
sS'_pool_maxsize'
p109
I10
sS'max_retries'
p110
I0
sS'config'
p111
(dp112
sS'_pool_connections'
p113
I10
sbaa(lp114
S'http://'
p115
ag0
(g104
g2
Ntp116
Rp117
(dp118
g108
I00
sg109
I10
sg110
I0
sg111
(dp119
sg113
I10
sbaatp120
Rp121
sS'max_redirects'
p122
I30
sb.