(dp0
S'2015-03-09'
p1
I68
sS'2015-03-08'
p2
I33
sS'2015-03-02'
p3
I90
sS'2015-02-28'
p4
I41
sS'2015-02-25'
p5
I47
sS'2015-02-26'
p6
I59
sS'2015-02-27'
p7
I40
sS'2015-03-12'
p8
I32
sS'2015-03-13'
p9
I13
sS'2015-03-10'
p10
I56
sS'2015-03-11'
p11
I53
sS'2015-03-05'
p12
I133
sS'2015-03-04'
p13
I98
sS'2015-03-14'
p14
I2
sS'2015-03-06'
p15
I270
sS'2015-03-01'
p16
I61
sS'2015-02-23'
p17
I56
sS'2015-03-07'
p18
I210
sS'2015-02-24'
p19
I248
sS'2015-03-03'
p20
I107
s.