(dp0
S'2015-03-22'
p1
I14
sS'2015-03-21'
p2
I1
sS'2015-04-03'
p3
I54
sS'2015-03-24'
p4
I5
sS'2015-03-28'
p5
I1
sS'2015-03-30'
p6
I2
sS'2015-03-19'
p7
I10
sS'2015-03-17'
p8
I9
sS'2015-04-08'
p9
I20
sS'2015-03-20'
p10
I1
sS'2015-04-11'
p11
I21
sS'2015-04-02'
p12
I16
sS'2015-04-10'
p13
I14
sS'2015-04-04'
p14
I9
sS'2015-04-12'
p15
I7
sS'2015-04-06'
p16
I1
sS'2015-04-07'
p17
I59
s.