(dp0
S'2015-05-03'
p1
I29
sS'2015-05-02'
p2
I26
sS'2015-05-01'
p3
I21
sS'2015-05-07'
p4
I10
sS'2015-05-06'
p5
I8
sS'2015-05-05'
p6
I55
sS'2015-05-04'
p7
I29
sS'2015-05-09'
p8
I9
sS'2015-05-08'
p9
I4
sS'2015-04-30'
p10
I41
sS'2015-04-26'
p11
I11
sS'2015-04-27'
p12
I5
sS'2015-04-24'
p13
I20
sS'2015-04-25'
p14
I11
sS'2015-04-22'
p15
I29
sS'2015-04-23'
p16
I48
sS'2015-04-20'
p17
I4
sS'2015-04-21'
p18
I5
sS'2015-05-14'
p19
I12
sS'2015-05-15'
p20
I8
sS'2015-05-11'
p21
I2
sS'2015-05-12'
p22
I1
sS'2015-05-13'
p23
I17
sS'2015-04-28'
p24
I86
sS'2015-04-29'
p25
I31
sS'2015-04-19'
p26
I30
sS'2015-04-18'
p27
I8
sS'2015-04-17'
p28
I3
sS'2015-04-16'
p29
I1
s.